; Function Attrs: mustprogress nounwind uwtable
define void @_ZN4LIEF5MachO14SegmentCommand7contentESt6vectorIhSaIhEE(ptr noundef nonnull align 8 dereferenceable(216) %0, ptr noundef captures(none) %1) local_unnamed_addr #0 align 2 {
  %3 = alloca %"class.std::function", align 8
  call void @llvm.lifetime.start.p0(i64 32, ptr nonnull %3) #24
  %4 = load ptr, ptr %1, align 8, !tbaa !49
  %5 = getelementptr inbounds nuw i8, ptr %1, i64 8
  %6 = load ptr, ptr %5, align 8, !tbaa !52
  %7 = getelementptr inbounds nuw i8, ptr %1, i64 16
  %8 = load ptr, ptr %7, align 8, !tbaa !50
  tail call void @llvm.memset.p0.i64(ptr noundef nonnull align 8 dereferenceable(24) %1, i8 0, i64 24, i1 false)
  %9 = getelementptr inbounds nuw i8, ptr %3, i64 16
  %10 = getelementptr inbounds nuw i8, ptr %3, i64 24
  %11 = getelementptr inbounds nuw i8, ptr %3, i64 8
  store i64 0, ptr %11, align 8
  %12 = tail call noalias noundef nonnull dereferenceable(24) ptr @_Znwm(i64 noundef 24) #27
  store ptr %4, ptr %12, align 8, !tbaa !49
  %13 = getelementptr inbounds nuw i8, ptr %12, i64 8
  store ptr %6, ptr %13, align 8, !tbaa !52
  %14 = getelementptr inbounds nuw i8, ptr %12, i64 16
  store ptr %8, ptr %14, align 8, !tbaa !50
  store ptr %12, ptr %3, align 8, !tbaa !101
  store ptr @"_ZNSt17_Function_handlerIFvRSt6vectorIhSaIhEEEZN4LIEF5MachO14SegmentCommand7contentES2_E3$_0E9_M_invokeERKSt9_Any_dataS3_", ptr %10, align 8, !tbaa !102
  store ptr @"_ZNSt17_Function_handlerIFvRSt6vectorIhSaIhEEEZN4LIEF5MachO14SegmentCommand7contentES2_E3$_0E10_M_managerERSt9_Any_dataRKSA_St18_Manager_operation", ptr %9, align 8, !tbaa !105
  %15 = load ptr, ptr %0, align 8, !tbaa !17
  %16 = getelementptr inbounds nuw i8, ptr %15, i64 56
  %17 = load ptr, ptr %16, align 8
  call void %17(ptr noundef nonnull align 8 dereferenceable(216) %0, ptr noundef nonnull align 8 dereferenceable(32) %3) #24
  %18 = load ptr, ptr %9, align 8, !tbaa !105
  %.not.i = icmp eq ptr %18, null
  br i1 %.not.i, label %"_ZZN4LIEF5MachO14SegmentCommand7contentESt6vectorIhSaIhEEEN3$_0D2Ev.exit", label %19

19:                                               ; preds = %2
  %20 = call noundef zeroext i1 %18(ptr noundef nonnull align 8 dereferenceable(32) %3, ptr noundef nonnull align 8 dereferenceable(32) %3, i32 noundef 3) #24
  br label %"_ZZN4LIEF5MachO14SegmentCommand7contentESt6vectorIhSaIhEEEN3$_0D2Ev.exit"

"_ZZN4LIEF5MachO14SegmentCommand7contentESt6vectorIhSaIhEEEN3$_0D2Ev.exit": ; preds = %19, %2
  call void @llvm.lifetime.end.p0(i64 32, ptr nonnull %3) #24
  ret void
}